target datalayout = "e-m:e-p270:32:32-p271:32:32-p272:64:64-i64:64-i128:128-f80:128-n8:16:32:64-S128"
target triple = "x86_64-pc-linux-gnu"

%struct._GLFWjoystick = type { i32, i32, ptr, i32, ptr, i32, ptr, i32, [128 x i8], ptr, [33 x i8], ptr, %struct._GLFWjoystickLinux }
%struct._GLFWjoystickLinux = type { i32, [4096 x i8], [512 x i32], [64 x i32], [64 x %struct.input_absinfo], [4 x [2 x i32]] }
%struct.input_absinfo = type { i32, i32, i32, i32, i32, i32 }

@handleAbsEvent.stateMap = internal constant [3 x [3 x i8]] [[3 x i8] c"\00\01\04", [3 x i8] c"\08\09\0C", [3 x i8] c"\02\03\06"], align 1

; Function Attrs: nounwind uwtable
define internal void @handleAbsEvent(ptr noundef %0, i32 noundef %1, i32 noundef %2) #0 {
  %4 = alloca ptr, align 8
  %5 = alloca i32, align 4
  %6 = alloca i32, align 4
  %7 = alloca i32, align 4
  %8 = alloca i32, align 4
  %9 = alloca i32, align 4
  %10 = alloca ptr, align 8
  %11 = alloca ptr, align 8
  %12 = alloca float, align 4
  %13 = alloca i32, align 4
  store ptr %0, ptr %4, align 8, !tbaa !110
  store i32 %1, ptr %5, align 4, !tbaa !96
  store i32 %2, ptr %6, align 4, !tbaa !96
  call void @llvm.lifetime.start.p0(i64 4, ptr %7) #8
  %14 = load ptr, ptr %4, align 8, !tbaa !110
  %15 = getelementptr inbounds nuw %struct._GLFWjoystick, ptr %14, i32 0, i32 12
  %16 = getelementptr inbounds nuw %struct._GLFWjoystickLinux, ptr %15, i32 0, i32 3
  %17 = load i32, ptr %5, align 4, !tbaa !96
  %18 = sext i32 %17 to i64
  %19 = getelementptr inbounds [64 x i32], ptr %16, i64 0, i64 %18
  %20 = load i32, ptr %19, align 4, !tbaa !96
  store i32 %20, ptr %7, align 4, !tbaa !96
  %21 = load i32, ptr %5, align 4, !tbaa !96
  %22 = icmp sge i32 %21, 16
  br i1 %22, label %23, label %79

23:                                               ; preds = %3
  %24 = load i32, ptr %5, align 4, !tbaa !96
  %25 = icmp sle i32 %24, 23
  br i1 %25, label %26, label %79

26:                                               ; preds = %23
  call void @llvm.lifetime.start.p0(i64 4, ptr %8) #8
  %27 = load i32, ptr %5, align 4, !tbaa !96
  %28 = sub nsw i32 %27, 16
  %29 = sdiv i32 %28, 2
  store i32 %29, ptr %8, align 4, !tbaa !96
  call void @llvm.lifetime.start.p0(i64 4, ptr %9) #8
  %30 = load i32, ptr %5, align 4, !tbaa !96
  %31 = sub nsw i32 %30, 16
  %32 = srem i32 %31, 2
  store i32 %32, ptr %9, align 4, !tbaa !96
  call void @llvm.lifetime.start.p0(i64 8, ptr %10) #8
  %33 = load ptr, ptr %4, align 8, !tbaa !110
  %34 = getelementptr inbounds nuw %struct._GLFWjoystick, ptr %33, i32 0, i32 12
  %35 = getelementptr inbounds nuw %struct._GLFWjoystickLinux, ptr %34, i32 0, i32 5
  %36 = load i32, ptr %8, align 4, !tbaa !96
  %37 = sext i32 %36 to i64
  %38 = getelementptr inbounds [4 x [2 x i32]], ptr %35, i64 0, i64 %37
  %39 = getelementptr inbounds [2 x i32], ptr %38, i64 0, i64 0
  store ptr %39, ptr %10, align 8, !tbaa !130
  %40 = load i32, ptr %6, align 4, !tbaa !96
  %41 = icmp eq i32 %40, 0
  br i1 %41, label %42, label %47

42:                                               ; preds = %26
  %43 = load ptr, ptr %10, align 8, !tbaa !130
  %44 = load i32, ptr %9, align 4, !tbaa !96
  %45 = sext i32 %44 to i64
  %46 = getelementptr inbounds i32, ptr %43, i64 %45
  store i32 0, ptr %46, align 4, !tbaa !96
  br label %65

47:                                               ; preds = %26
  %48 = load i32, ptr %6, align 4, !tbaa !96
  %49 = icmp slt i32 %48, 0
  br i1 %49, label %50, label %55

50:                                               ; preds = %47
  %51 = load ptr, ptr %10, align 8, !tbaa !130
  %52 = load i32, ptr %9, align 4, !tbaa !96
  %53 = sext i32 %52 to i64
  %54 = getelementptr inbounds i32, ptr %51, i64 %53
  store i32 1, ptr %54, align 4, !tbaa !96
  br label %64

55:                                               ; preds = %47
  %56 = load i32, ptr %6, align 4, !tbaa !96
  %57 = icmp sgt i32 %56, 0
  br i1 %57, label %58, label %63

58:                                               ; preds = %55
  %59 = load ptr, ptr %10, align 8, !tbaa !130
  %60 = load i32, ptr %9, align 4, !tbaa !96
  %61 = sext i32 %60 to i64
  %62 = getelementptr inbounds i32, ptr %59, i64 %61
  store i32 2, ptr %62, align 4, !tbaa !96
  br label %63

63:                                               ; preds = %58, %55
  br label %64

64:                                               ; preds = %63, %50
  br label %65

65:                                               ; preds = %64, %42
  %66 = load ptr, ptr %4, align 8, !tbaa !110
  %67 = load i32, ptr %7, align 4, !tbaa !96
  %68 = load ptr, ptr %10, align 8, !tbaa !130
  %69 = getelementptr inbounds i32, ptr %68, i64 0
  %70 = load i32, ptr %69, align 4, !tbaa !96
  %71 = sext i32 %70 to i64
  %72 = getelementptr inbounds [3 x [3 x i8]], ptr @handleAbsEvent.stateMap, i64 0, i64 %71
  %73 = load ptr, ptr %10, align 8, !tbaa !130
  %74 = getelementptr inbounds i32, ptr %73, i64 1
  %75 = load i32, ptr %74, align 4, !tbaa !96
  %76 = sext i32 %75 to i64
  %77 = getelementptr inbounds [3 x i8], ptr %72, i64 0, i64 %76
  %78 = load i8, ptr %77, align 1, !tbaa !103
  call void @_glfwInputJoystickHat(ptr noundef %66, i32 noundef %67, i8 noundef signext %78)
  call void @llvm.lifetime.end.p0(i64 8, ptr %10) #8
  call void @llvm.lifetime.end.p0(i64 4, ptr %9) #8
  call void @llvm.lifetime.end.p0(i64 4, ptr %8) #8
  br label %114

79:                                               ; preds = %23, %3
  call void @llvm.lifetime.start.p0(i64 8, ptr %11) #8
  %80 = load ptr, ptr %4, align 8, !tbaa !110
  %81 = getelementptr inbounds nuw %struct._GLFWjoystick, ptr %80, i32 0, i32 12
  %82 = getelementptr inbounds nuw %struct._GLFWjoystickLinux, ptr %81, i32 0, i32 4
  %83 = load i32, ptr %5, align 4, !tbaa !96
  %84 = sext i32 %83 to i64
  %85 = getelementptr inbounds [64 x %struct.input_absinfo], ptr %82, i64 0, i64 %84
  store ptr %85, ptr %11, align 8, !tbaa !126
  call void @llvm.lifetime.start.p0(i64 4, ptr %12) #8
  %86 = load i32, ptr %6, align 4, !tbaa !96
  %87 = sitofp i32 %86 to float
  store float %87, ptr %12, align 4, !tbaa !132
  call void @llvm.lifetime.start.p0(i64 4, ptr %13) #8
  %88 = load ptr, ptr %11, align 8, !tbaa !126
  %89 = getelementptr inbounds nuw %struct.input_absinfo, ptr %88, i32 0, i32 2
  %90 = load i32, ptr %89, align 4, !tbaa !133
  %91 = load ptr, ptr %11, align 8, !tbaa !126
  %92 = getelementptr inbounds nuw %struct.input_absinfo, ptr %91, i32 0, i32 1
  %93 = load i32, ptr %92, align 4, !tbaa !134
  %94 = sub nsw i32 %90, %93
  store i32 %94, ptr %13, align 4, !tbaa !96
  %95 = load i32, ptr %13, align 4, !tbaa !96
  %96 = icmp ne i32 %95, 0
  br i1 %96, label %97, label %110

97:                                               ; preds = %79
  %98 = load float, ptr %12, align 4, !tbaa !132
  %99 = load ptr, ptr %11, align 8, !tbaa !126
  %100 = getelementptr inbounds nuw %struct.input_absinfo, ptr %99, i32 0, i32 1
  %101 = load i32, ptr %100, align 4, !tbaa !134
  %102 = sitofp i32 %101 to float
  %103 = fsub float %98, %102
  %104 = load i32, ptr %13, align 4, !tbaa !96
  %105 = sitofp i32 %104 to float
  %106 = fdiv float %103, %105
  store float %106, ptr %12, align 4, !tbaa !132
  %107 = load float, ptr %12, align 4, !tbaa !132
  %108 = fmul float %107, 2.000000e+00
  %109 = fsub float %108, 1.000000e+00
  store float %109, ptr %12, align 4, !tbaa !132
  br label %110

110:                                              ; preds = %97, %79
  %111 = load ptr, ptr %4, align 8, !tbaa !110
  %112 = load i32, ptr %7, align 4, !tbaa !96
  %113 = load float, ptr %12, align 4, !tbaa !132
  call void @_glfwInputJoystickAxis(ptr noundef %111, i32 noundef %112, float noundef %113)
  call void @llvm.lifetime.end.p0(i64 4, ptr %13) #8
  call void @llvm.lifetime.end.p0(i64 4, ptr %12) #8
  call void @llvm.lifetime.end.p0(i64 8, ptr %11) #8
  br label %114

114:                                              ; preds = %110, %65
  call void @llvm.lifetime.end.p0(i64 4, ptr %7) #8
  ret void
}

; Function Attrs: nounwind uwtable
define internal void @pollAbsState(ptr noundef %0) #0 {
  %2 = alloca ptr, align 8
  %3 = alloca i32, align 4
  %4 = alloca i32, align 4
  %5 = alloca ptr, align 8
  store ptr %0, ptr %2, align 8, !tbaa !110
  call void @llvm.lifetime.start.p0(i64 4, ptr %3) #8
  store i32 0, ptr %3, align 4, !tbaa !96
  br label %6

6:                                                ; preds = %50, %1
  %7 = load i32, ptr %3, align 4, !tbaa !96
  %8 = icmp slt i32 %7, 64
  br i1 %8, label %10, label %9

9:                                                ; preds = %6
  store i32 2, ptr %4, align 4
  call void @llvm.lifetime.end.p0(i64 4, ptr %3) #8
  br label %53

10:                                               ; preds = %6
  %11 = load ptr, ptr %2, align 8, !tbaa !110
  %12 = getelementptr inbounds nuw %struct._GLFWjoystick, ptr %11, i32 0, i32 12
  %13 = getelementptr inbounds nuw %struct._GLFWjoystickLinux, ptr %12, i32 0, i32 3
  %14 = load i32, ptr %3, align 4, !tbaa !96
  %15 = sext i32 %14 to i64
  %16 = getelementptr inbounds [64 x i32], ptr %13, i64 0, i64 %15
  %17 = load i32, ptr %16, align 4, !tbaa !96
  %18 = icmp slt i32 %17, 0
  br i1 %18, label %19, label %20

19:                                               ; preds = %10
  br label %50

20:                                               ; preds = %10
  call void @llvm.lifetime.start.p0(i64 8, ptr %5) #8
  %21 = load ptr, ptr %2, align 8, !tbaa !110
  %22 = getelementptr inbounds nuw %struct._GLFWjoystick, ptr %21, i32 0, i32 12
  %23 = getelementptr inbounds nuw %struct._GLFWjoystickLinux, ptr %22, i32 0, i32 4
  %24 = load i32, ptr %3, align 4, !tbaa !96
  %25 = sext i32 %24 to i64
  %26 = getelementptr inbounds [64 x %struct.input_absinfo], ptr %23, i64 0, i64 %25
  store ptr %26, ptr %5, align 8, !tbaa !126
  %27 = load ptr, ptr %2, align 8, !tbaa !110
  %28 = getelementptr inbounds nuw %struct._GLFWjoystick, ptr %27, i32 0, i32 12
  %29 = getelementptr inbounds nuw %struct._GLFWjoystickLinux, ptr %28, i32 0, i32 0
  %30 = load i32, ptr %29, align 8, !tbaa !112
  %31 = load i32, ptr %3, align 4, !tbaa !96
  %32 = add nsw i32 64, %31
  %33 = shl i32 %32, 0
  %34 = or i32 -2147465984, %33
  %35 = zext i32 %34 to i64
  %36 = or i64 %35, 1572864
  %37 = load ptr, ptr %5, align 8, !tbaa !126
  %38 = call i32 (i32, i64, ...) @ioctl(i32 noundef %30, i64 noundef %36, ptr noundef %37) #8
  %39 = icmp slt i32 %38, 0
  br i1 %39, label %40, label %41

40:                                               ; preds = %20
  store i32 4, ptr %4, align 4
  br label %47

41:                                               ; preds = %20
  %42 = load ptr, ptr %2, align 8, !tbaa !110
  %43 = load i32, ptr %3, align 4, !tbaa !96
  %44 = load ptr, ptr %5, align 8, !tbaa !126
  %45 = getelementptr inbounds nuw %struct.input_absinfo, ptr %44, i32 0, i32 0
  %46 = load i32, ptr %45, align 4, !tbaa !128
  call void @handleAbsEvent(ptr noundef %42, i32 noundef %43, i32 noundef %46)
  store i32 0, ptr %4, align 4
  br label %47

47:                                               ; preds = %41, %40
  call void @llvm.lifetime.end.p0(i64 8, ptr %5) #8
  %48 = load i32, ptr %4, align 4
  switch i32 %48, label %54 [
    i32 0, label %49
    i32 4, label %50
  ]

49:                                               ; preds = %47
  br label %50

50:                                               ; preds = %49, %47, %19
  %51 = load i32, ptr %3, align 4, !tbaa !96
  %52 = add nsw i32 %51, 1
  store i32 %52, ptr %3, align 4, !tbaa !96
  br label %6

53:                                               ; preds = %9
  ret void

54:                                               ; preds = %47
  unreachable
}