; Function Attrs: nounwind uwtable
define internal fastcc void @pollAbsState(ptr noundef %0) unnamed_addr #0 {
  %2 = getelementptr inbounds nuw i8, ptr %0, i64 6388
  %3 = getelementptr inbounds nuw i8, ptr %0, i64 240
  %4 = getelementptr inbounds nuw i8, ptr %0, i64 6644
  %5 = getelementptr inbounds nuw i8, ptr %0, i64 8180
  br label %7

6:                                                ; preds = %handleAbsEvent.exit
  ret void

7:                                                ; preds = %1, %handleAbsEvent.exit
  %indvars.iv = phi i64 [ 0, %1 ], [ %indvars.iv.next, %handleAbsEvent.exit ]
  %8 = getelementptr inbounds nuw [64 x i32], ptr %2, i64 0, i64 %indvars.iv
  %9 = load i32, ptr %8, align 4, !tbaa !93
  %10 = icmp slt i32 %9, 0
  br i1 %10, label %handleAbsEvent.exit, label %11

11:                                               ; preds = %7
  %12 = getelementptr inbounds nuw [64 x %struct.input_absinfo], ptr %4, i64 0, i64 %indvars.iv
  %13 = load i32, ptr %3, align 8, !tbaa !94
  %14 = or disjoint i64 %indvars.iv, 2149074240
  %15 = tail call i32 (i32, i64, ...) @ioctl(i32 noundef %13, i64 noundef %14, ptr noundef nonnull %12) #13
  %16 = icmp slt i32 %15, 0
  br i1 %16, label %handleAbsEvent.exit, label %17

17:                                               ; preds = %11
  %18 = load i32, ptr %12, align 4, !tbaa !116
  %19 = load i32, ptr %8, align 4, !tbaa !93
  %20 = and i64 %indvars.iv, 56
  %or.cond.i = icmp eq i64 %20, 16
  br i1 %or.cond.i, label %21, label %44

21:                                               ; preds = %17
  %22 = add nuw i64 %indvars.iv, 4294967280
  %23 = lshr i64 %22, 1
  %24 = and i64 %23, 2147483619
  %25 = getelementptr inbounds nuw [4 x [2 x i32]], ptr %5, i64 0, i64 %24
  %26 = icmp eq i32 %18, 0
  br i1 %26, label %27, label %30

27:                                               ; preds = %21
  %28 = and i64 %indvars.iv, 1
  %29 = getelementptr inbounds nuw i32, ptr %25, i64 %28
  store i32 0, ptr %29, align 4, !tbaa !93
  br label %36

30:                                               ; preds = %21
  %31 = icmp slt i32 %18, 0
  %32 = and i64 %indvars.iv, 1
  %33 = getelementptr inbounds nuw i32, ptr %25, i64 %32
  br i1 %31, label %34, label %35

34:                                               ; preds = %30
  store i32 1, ptr %33, align 4, !tbaa !93
  br label %36

35:                                               ; preds = %30
  store i32 2, ptr %33, align 4, !tbaa !93
  br label %36

36:                                               ; preds = %35, %34, %27
  %37 = load i32, ptr %25, align 4, !tbaa !93
  %38 = sext i32 %37 to i64
  %39 = getelementptr inbounds nuw i8, ptr %25, i64 4
  %40 = load i32, ptr %39, align 4, !tbaa !93
  %41 = sext i32 %40 to i64
  %42 = getelementptr inbounds [3 x [3 x i8]], ptr @handleAbsEvent.stateMap, i64 0, i64 %38, i64 %41
  %43 = load i8, ptr %42, align 1, !tbaa !100
  tail call void @_glfwInputJoystickHat(ptr noundef nonnull %0, i32 noundef %19, i8 noundef signext %43) #13
  br label %handleAbsEvent.exit

44:                                               ; preds = %17
  %45 = sitofp i32 %18 to float
  %46 = getelementptr inbounds nuw i8, ptr %12, i64 8
  %47 = load i32, ptr %46, align 4, !tbaa !113
  %48 = getelementptr inbounds nuw i8, ptr %12, i64 4
  %49 = load i32, ptr %48, align 4, !tbaa !115
  %.not.i = icmp eq i32 %47, %49
  br i1 %.not.i, label %58, label %50

50:                                               ; preds = %44
  %51 = sub nsw i32 %47, %49
  %52 = sitofp i32 %49 to float
  %53 = fsub float %45, %52
  %54 = sitofp i32 %51 to float
  %55 = fdiv float %53, %54
  %56 = fmul float %55, 2.000000e+00
  %57 = fadd float %56, -1.000000e+00
  br label %58

58:                                               ; preds = %50, %44
  %.0.i = phi float [ %57, %50 ], [ %45, %44 ]
  tail call void @_glfwInputJoystickAxis(ptr noundef nonnull %0, i32 noundef %19, float noundef %.0.i) #13
  br label %handleAbsEvent.exit

handleAbsEvent.exit:                              ; preds = %58, %36, %11, %7
  %indvars.iv.next = add nuw nsw i64 %indvars.iv, 1
  %exitcond.not = icmp eq i64 %indvars.iv.next, 64
  br i1 %exitcond.not, label %6, label %7
}